target datalayout = "e-m:e-p270:32:32-p271:32:32-p272:64:64-i64:64-i128:128-f80:128-n8:16:32:64-S128"
target triple = "x86_64-pc-linux-gnu"

%struct.strvec = type { ptr, i64, i64 }
%struct.strbuf = type { i64, i64, ptr }
%struct.child_process = type { %struct.strvec, %struct.strvec, i32, i32, i64, ptr, ptr, i32, i32, i32, ptr, i16, ptr }
%struct.pack_objects_args = type { ptr, ptr, ptr, ptr, i64, i32, i32, i32, i32, %struct.list_objects_filter_options }
%struct.list_objects_filter_options = type { %struct.strbuf, i32, i8, ptr, i64, i64, i32, i64, i64, ptr }

@delta_base_offset = internal global i32 1, align 4
@.str.123 = private unnamed_addr constant [13 x i8] c"pack-objects\00", align 1
@.str.124 = private unnamed_addr constant [12 x i8] c"--window=%s\00", align 1
@.str.125 = private unnamed_addr constant [19 x i8] c"--window-memory=%s\00", align 1
@.str.126 = private unnamed_addr constant [11 x i8] c"--depth=%s\00", align 1
@.str.127 = private unnamed_addr constant [13 x i8] c"--threads=%s\00", align 1
@.str.128 = private unnamed_addr constant [20 x i8] c"--max-pack-size=%lu\00", align 1
@.str.129 = private unnamed_addr constant [17 x i8] c"--no-reuse-delta\00", align 1
@.str.130 = private unnamed_addr constant [18 x i8] c"--no-reuse-object\00", align 1
@.str.131 = private unnamed_addr constant [8 x i8] c"--local\00", align 1
@.str.132 = private unnamed_addr constant [8 x i8] c"--quiet\00", align 1
@.str.133 = private unnamed_addr constant [20 x i8] c"--delta-base-offset\00", align 1

; Function Attrs: nounwind uwtable
define internal void @prepare_pack_objects(ptr noundef %0, ptr noundef %1, ptr noundef %2) #0 {
  %4 = alloca ptr, align 8
  %5 = alloca ptr, align 8
  %6 = alloca ptr, align 8
  store ptr %0, ptr %4, align 8, !tbaa !125
  store ptr %1, ptr %5, align 8, !tbaa !100
  store ptr %2, ptr %6, align 8, !tbaa !11
  %7 = load ptr, ptr %4, align 8, !tbaa !125
  %8 = getelementptr inbounds nuw %struct.child_process, ptr %7, i32 0, i32 0
  %9 = call ptr @strvec_push(ptr noundef %8, ptr noundef @.str.123)
  %10 = load ptr, ptr %5, align 8, !tbaa !100
  %11 = getelementptr inbounds nuw %struct.pack_objects_args, ptr %10, i32 0, i32 0
  %12 = load ptr, ptr %11, align 8, !tbaa !31
  %13 = icmp ne ptr %12, null
  br i1 %13, label %14, label %21

14:                                               ; preds = %3
  %15 = load ptr, ptr %4, align 8, !tbaa !125
  %16 = getelementptr inbounds nuw %struct.child_process, ptr %15, i32 0, i32 0
  %17 = load ptr, ptr %5, align 8, !tbaa !100
  %18 = getelementptr inbounds nuw %struct.pack_objects_args, ptr %17, i32 0, i32 0
  %19 = load ptr, ptr %18, align 8, !tbaa !31
  %20 = call ptr (ptr, ptr, ...) @strvec_pushf(ptr noundef %16, ptr noundef @.str.124, ptr noundef %19)
  br label %21

21:                                               ; preds = %14, %3
  %22 = load ptr, ptr %5, align 8, !tbaa !100
  %23 = getelementptr inbounds nuw %struct.pack_objects_args, ptr %22, i32 0, i32 1
  %24 = load ptr, ptr %23, align 8, !tbaa !36
  %25 = icmp ne ptr %24, null
  br i1 %25, label %26, label %33

26:                                               ; preds = %21
  %27 = load ptr, ptr %4, align 8, !tbaa !125
  %28 = getelementptr inbounds nuw %struct.child_process, ptr %27, i32 0, i32 0
  %29 = load ptr, ptr %5, align 8, !tbaa !100
  %30 = getelementptr inbounds nuw %struct.pack_objects_args, ptr %29, i32 0, i32 1
  %31 = load ptr, ptr %30, align 8, !tbaa !36
  %32 = call ptr (ptr, ptr, ...) @strvec_pushf(ptr noundef %28, ptr noundef @.str.125, ptr noundef %31)
  br label %33

33:                                               ; preds = %26, %21
  %34 = load ptr, ptr %5, align 8, !tbaa !100
  %35 = getelementptr inbounds nuw %struct.pack_objects_args, ptr %34, i32 0, i32 2
  %36 = load ptr, ptr %35, align 8, !tbaa !37
  %37 = icmp ne ptr %36, null
  br i1 %37, label %38, label %45

38:                                               ; preds = %33
  %39 = load ptr, ptr %4, align 8, !tbaa !125
  %40 = getelementptr inbounds nuw %struct.child_process, ptr %39, i32 0, i32 0
  %41 = load ptr, ptr %5, align 8, !tbaa !100
  %42 = getelementptr inbounds nuw %struct.pack_objects_args, ptr %41, i32 0, i32 2
  %43 = load ptr, ptr %42, align 8, !tbaa !37
  %44 = call ptr (ptr, ptr, ...) @strvec_pushf(ptr noundef %40, ptr noundef @.str.126, ptr noundef %43)
  br label %45

45:                                               ; preds = %38, %33
  %46 = load ptr, ptr %5, align 8, !tbaa !100
  %47 = getelementptr inbounds nuw %struct.pack_objects_args, ptr %46, i32 0, i32 3
  %48 = load ptr, ptr %47, align 8, !tbaa !38
  %49 = icmp ne ptr %48, null
  br i1 %49, label %50, label %57

50:                                               ; preds = %45
  %51 = load ptr, ptr %4, align 8, !tbaa !125
  %52 = getelementptr inbounds nuw %struct.child_process, ptr %51, i32 0, i32 0
  %53 = load ptr, ptr %5, align 8, !tbaa !100
  %54 = getelementptr inbounds nuw %struct.pack_objects_args, ptr %53, i32 0, i32 3
  %55 = load ptr, ptr %54, align 8, !tbaa !38
  %56 = call ptr (ptr, ptr, ...) @strvec_pushf(ptr noundef %52, ptr noundef @.str.127, ptr noundef %55)
  br label %57

57:                                               ; preds = %50, %45
  %58 = load ptr, ptr %5, align 8, !tbaa !100
  %59 = getelementptr inbounds nuw %struct.pack_objects_args, ptr %58, i32 0, i32 4
  %60 = load i64, ptr %59, align 8, !tbaa !68
  %61 = icmp ne i64 %60, 0
  br i1 %61, label %62, label %69

62:                                               ; preds = %57
  %63 = load ptr, ptr %4, align 8, !tbaa !125
  %64 = getelementptr inbounds nuw %struct.child_process, ptr %63, i32 0, i32 0
  %65 = load ptr, ptr %5, align 8, !tbaa !100
  %66 = getelementptr inbounds nuw %struct.pack_objects_args, ptr %65, i32 0, i32 4
  %67 = load i64, ptr %66, align 8, !tbaa !68
  %68 = call ptr (ptr, ptr, ...) @strvec_pushf(ptr noundef %64, ptr noundef @.str.128, i64 noundef %67)
  br label %69

69:                                               ; preds = %62, %57
  %70 = load ptr, ptr %5, align 8, !tbaa !100
  %71 = getelementptr inbounds nuw %struct.pack_objects_args, ptr %70, i32 0, i32 5
  %72 = load i32, ptr %71, align 8, !tbaa !127
  %73 = icmp ne i32 %72, 0
  br i1 %73, label %74, label %78

74:                                               ; preds = %69
  %75 = load ptr, ptr %4, align 8, !tbaa !125
  %76 = getelementptr inbounds nuw %struct.child_process, ptr %75, i32 0, i32 0
  %77 = call ptr (ptr, ptr, ...) @strvec_pushf(ptr noundef %76, ptr noundef @.str.129)
  br label %78

78:                                               ; preds = %74, %69
  %79 = load ptr, ptr %5, align 8, !tbaa !100
  %80 = getelementptr inbounds nuw %struct.pack_objects_args, ptr %79, i32 0, i32 6
  %81 = load i32, ptr %80, align 4, !tbaa !128
  %82 = icmp ne i32 %81, 0
  br i1 %82, label %83, label %87

83:                                               ; preds = %78
  %84 = load ptr, ptr %4, align 8, !tbaa !125
  %85 = getelementptr inbounds nuw %struct.child_process, ptr %84, i32 0, i32 0
  %86 = call ptr (ptr, ptr, ...) @strvec_pushf(ptr noundef %85, ptr noundef @.str.130)
  br label %87

87:                                               ; preds = %83, %78
  %88 = load ptr, ptr %5, align 8, !tbaa !100
  %89 = getelementptr inbounds nuw %struct.pack_objects_args, ptr %88, i32 0, i32 8
  %90 = load i32, ptr %89, align 4, !tbaa !39
  %91 = icmp ne i32 %90, 0
  br i1 %91, label %92, label %96

92:                                               ; preds = %87
  %93 = load ptr, ptr %4, align 8, !tbaa !125
  %94 = getelementptr inbounds nuw %struct.child_process, ptr %93, i32 0, i32 0
  %95 = call ptr @strvec_push(ptr noundef %94, ptr noundef @.str.131)
  br label %96

96:                                               ; preds = %92, %87
  %97 = load ptr, ptr %5, align 8, !tbaa !100
  %98 = getelementptr inbounds nuw %struct.pack_objects_args, ptr %97, i32 0, i32 7
  %99 = load i32, ptr %98, align 8, !tbaa !44
  %100 = icmp ne i32 %99, 0
  br i1 %100, label %101, label %105

101:                                              ; preds = %96
  %102 = load ptr, ptr %4, align 8, !tbaa !125
  %103 = getelementptr inbounds nuw %struct.child_process, ptr %102, i32 0, i32 0
  %104 = call ptr @strvec_push(ptr noundef %103, ptr noundef @.str.132)
  br label %105

105:                                              ; preds = %101, %96
  %106 = load i32, ptr @delta_base_offset, align 4, !tbaa !4
  %107 = icmp ne i32 %106, 0
  br i1 %107, label %108, label %112

108:                                              ; preds = %105
  %109 = load ptr, ptr %4, align 8, !tbaa !125
  %110 = getelementptr inbounds nuw %struct.child_process, ptr %109, i32 0, i32 0
  %111 = call ptr @strvec_push(ptr noundef %110, ptr noundef @.str.133)
  br label %112

112:                                              ; preds = %108, %105
  %113 = load ptr, ptr %4, align 8, !tbaa !125
  %114 = getelementptr inbounds nuw %struct.child_process, ptr %113, i32 0, i32 0
  %115 = load ptr, ptr %6, align 8, !tbaa !11
  %116 = call ptr @strvec_push(ptr noundef %114, ptr noundef %115)
  %117 = load ptr, ptr %4, align 8, !tbaa !125
  %118 = getelementptr inbounds nuw %struct.child_process, ptr %117, i32 0, i32 11
  %119 = load i16, ptr %118, align 8
  %120 = and i16 %119, -9
  %121 = or i16 %120, 8
  store i16 %121, ptr %118, align 8
  %122 = load ptr, ptr %4, align 8, !tbaa !125
  %123 = getelementptr inbounds nuw %struct.child_process, ptr %122, i32 0, i32 8
  store i32 -1, ptr %123, align 4, !tbaa !129
  ret void
}