; Function Attrs: nounwind uwtable
define internal fastcc void @prepare_pack_objects(ptr noundef nonnull %0, ptr noundef nonnull readonly captures(none) %1, ptr noundef %2) unnamed_addr #0 {
  %4 = tail call ptr @strvec_push(ptr noundef nonnull %0, ptr noundef nonnull @.str.123) #16
  %5 = load ptr, ptr %1, align 8, !tbaa !24
  %.not = icmp eq ptr %5, null
  br i1 %.not, label %8, label %6

6:                                                ; preds = %3
  %7 = tail call ptr (ptr, ptr, ...) @strvec_pushf(ptr noundef nonnull %0, ptr noundef nonnull @.str.124, ptr noundef nonnull %5) #16
  br label %8

8:                                                ; preds = %6, %3
  %9 = getelementptr inbounds nuw i8, ptr %1, i64 8
  %10 = load ptr, ptr %9, align 8, !tbaa !29
  %.not33 = icmp eq ptr %10, null
  br i1 %.not33, label %13, label %11

11:                                               ; preds = %8
  %12 = tail call ptr (ptr, ptr, ...) @strvec_pushf(ptr noundef nonnull %0, ptr noundef nonnull @.str.125, ptr noundef nonnull %10) #16
  br label %13

13:                                               ; preds = %11, %8
  %14 = getelementptr inbounds nuw i8, ptr %1, i64 16
  %15 = load ptr, ptr %14, align 8, !tbaa !30
  %.not34 = icmp eq ptr %15, null
  br i1 %.not34, label %18, label %16

16:                                               ; preds = %13
  %17 = tail call ptr (ptr, ptr, ...) @strvec_pushf(ptr noundef nonnull %0, ptr noundef nonnull @.str.126, ptr noundef nonnull %15) #16
  br label %18

18:                                               ; preds = %16, %13
  %19 = getelementptr inbounds nuw i8, ptr %1, i64 24
  %20 = load ptr, ptr %19, align 8, !tbaa !31
  %.not35 = icmp eq ptr %20, null
  br i1 %.not35, label %23, label %21

21:                                               ; preds = %18
  %22 = tail call ptr (ptr, ptr, ...) @strvec_pushf(ptr noundef nonnull %0, ptr noundef nonnull @.str.127, ptr noundef nonnull %20) #16
  br label %23

23:                                               ; preds = %21, %18
  %24 = getelementptr inbounds nuw i8, ptr %1, i64 32
  %25 = load i64, ptr %24, align 8, !tbaa !103
  %.not36 = icmp eq i64 %25, 0
  br i1 %.not36, label %28, label %26

26:                                               ; preds = %23
  %27 = tail call ptr (ptr, ptr, ...) @strvec_pushf(ptr noundef nonnull %0, ptr noundef nonnull @.str.128, i64 noundef %25) #16
  br label %28

28:                                               ; preds = %26, %23
  %29 = getelementptr inbounds nuw i8, ptr %1, i64 40
  %30 = load i32, ptr %29, align 8, !tbaa !119
  %.not37 = icmp eq i32 %30, 0
  br i1 %.not37, label %33, label %31

31:                                               ; preds = %28
  %32 = tail call ptr (ptr, ptr, ...) @strvec_pushf(ptr noundef nonnull %0, ptr noundef nonnull @.str.129) #16
  br label %33

33:                                               ; preds = %31, %28
  %34 = getelementptr inbounds nuw i8, ptr %1, i64 44
  %35 = load i32, ptr %34, align 4, !tbaa !120
  %.not38 = icmp eq i32 %35, 0
  br i1 %.not38, label %38, label %36

36:                                               ; preds = %33
  %37 = tail call ptr (ptr, ptr, ...) @strvec_pushf(ptr noundef nonnull %0, ptr noundef nonnull @.str.130) #16
  br label %38

38:                                               ; preds = %36, %33
  %39 = getelementptr inbounds nuw i8, ptr %1, i64 52
  %40 = load i32, ptr %39, align 4, !tbaa !60
  %.not39 = icmp eq i32 %40, 0
  br i1 %.not39, label %43, label %41

41:                                               ; preds = %38
  %42 = tail call ptr @strvec_push(ptr noundef nonnull %0, ptr noundef nonnull @.str.131) #16
  br label %43

43:                                               ; preds = %41, %38
  %44 = getelementptr inbounds nuw i8, ptr %1, i64 48
  %45 = load i32, ptr %44, align 8, !tbaa !68
  %.not40 = icmp eq i32 %45, 0
  br i1 %.not40, label %48, label %46

46:                                               ; preds = %43
  %47 = tail call ptr @strvec_push(ptr noundef nonnull %0, ptr noundef nonnull @.str.132) #16
  br label %48

48:                                               ; preds = %46, %43
  %49 = load i32, ptr @delta_base_offset, align 4, !tbaa !4
  %.not41 = icmp eq i32 %49, 0
  br i1 %.not41, label %52, label %50

50:                                               ; preds = %48
  %51 = tail call ptr @strvec_push(ptr noundef nonnull %0, ptr noundef nonnull @.str.133) #16
  br label %52

52:                                               ; preds = %50, %48
  %53 = tail call ptr @strvec_push(ptr noundef nonnull %0, ptr noundef %2) #16
  %54 = getelementptr inbounds nuw i8, ptr %0, i64 104
  %55 = load i16, ptr %54, align 8
  %56 = or i16 %55, 8
  store i16 %56, ptr %54, align 8
  %57 = getelementptr inbounds nuw i8, ptr %0, i64 84
  store i32 -1, ptr %57, align 4, !tbaa !74
  ret void
}